; ModuleID = '62/2687.c'
source_filename = "62/2687.c"
target datalayout = "e-m:e-p270:32:32-p271:32:32-p272:64:64-i64:64-f80:128-n8:16:32:64-S128"
target triple = "x86_64-pc-linux-gnu"

@.str = private unnamed_addr constant [3 x i8] c"%c\00", align 1

; Function Attrs: noinline nounwind uwtable
define dso_local i32 @main() #0 {
  %1 = alloca i32, align 4
  %2 = alloca i32, align 4
  %3 = alloca i32, align 4
  %4 = alloca i32, align 4
  %5 = alloca i32, align 4
  %6 = alloca i32, align 4
  %7 = alloca [300 x i8], align 16
  %8 = alloca [300 x i8], align 16
  store i32 0, i32* %1, align 4
  store i32 0, i32* %5, align 4
  store i32 0, i32* %6, align 4
  %9 = getelementptr inbounds [300 x i8], [300 x i8]* %7, i64 0, i64 0
  %10 = call i32 (i8*, ...) bitcast (i32 (...)* @gets to i32 (i8*, ...)*)(i8* %9)
  %11 = getelementptr inbounds [300 x i8], [300 x i8]* %7, i64 0, i64 0
  %12 = call i64 @strlen(i8* %11) #3
  %13 = trunc i64 %12 to i32
  store i32 %13, i32* %3, align 4
  %14 = getelementptr inbounds [300 x i8], [300 x i8]* %7, i64 0, i64 0
  %15 = load i8, i8* %14, align 16
  %16 = sext i8 %15 to i32
  %17 = icmp eq i32 %16, 32
  br i1 %17, label %18, label %79

18:                                               ; preds = %0
  store i32 1, i32* %2, align 4
  br label %19

19:                                               ; preds = %32, %18
  %20 = load i32, i32* %2, align 4
  %21 = load i32, i32* %3, align 4
  %22 = icmp slt i32 %20, %21
  br i1 %22, label %23, label %35

23:                                               ; preds = %19
  %24 = load i32, i32* %2, align 4
  %25 = sext i32 %24 to i64
  %26 = getelementptr inbounds [300 x i8], [300 x i8]* %7, i64 0, i64 %25
  %27 = load i8, i8* %26, align 1
  %28 = load i32, i32* %2, align 4
  %29 = sub nsw i32 %28, 1
  %30 = sext i32 %29 to i64
  %31 = getelementptr inbounds [300 x i8], [300 x i8]* %7, i64 0, i64 %30
  store i8 %27, i8* %31, align 1
  br label %32

32:                                               ; preds = %23
  %33 = load i32, i32* %2, align 4
  %34 = add nsw i32 %33, 1
  store i32 %34, i32* %2, align 4
  br label %19

35:                                               ; preds = %19
  store i32 0, i32* %2, align 4
  br label %36

36:                                               ; preds = %75, %35
  %37 = load i32, i32* %2, align 4
  %38 = load i32, i32* %3, align 4
  %39 = sub nsw i32 %38, 1
  %40 = icmp slt i32 %37, %39
  br i1 %40, label %41, label %78

41:                                               ; preds = %36
  %42 = load i32, i32* %2, align 4
  %43 = sext i32 %42 to i64
  %44 = getelementptr inbounds [300 x i8], [300 x i8]* %7, i64 0, i64 %43
  %45 = load i8, i8* %44, align 1
  %46 = sext i8 %45 to i32
  %47 = icmp ne i32 %46, 32
  br i1 %47, label %48, label %58

48:                                               ; preds = %41
  store i32 0, i32* %6, align 4
  %49 = load i32, i32* %2, align 4
  %50 = sext i32 %49 to i64
  %51 = getelementptr inbounds [300 x i8], [300 x i8]* %7, i64 0, i64 %50
  %52 = load i8, i8* %51, align 1
  %53 = load i32, i32* %5, align 4
  %54 = sext i32 %53 to i64
  %55 = getelementptr inbounds [300 x i8], [300 x i8]* %8, i64 0, i64 %54
  store i8 %52, i8* %55, align 1
  %56 = load i32, i32* %5, align 4
  %57 = add nsw i32 %56, 1
  store i32 %57, i32* %5, align 4
  br label %58

58:                                               ; preds = %48, %41
  %59 = load i32, i32* %2, align 4
  %60 = sext i32 %59 to i64
  %61 = getelementptr inbounds [300 x i8], [300 x i8]* %7, i64 0, i64 %60
  %62 = load i8, i8* %61, align 1
  %63 = sext i8 %62 to i32
  %64 = icmp eq i32 %63, 32
  br i1 %64, label %65, label %74

65:                                               ; preds = %58
  %66 = load i32, i32* %6, align 4
  %67 = icmp eq i32 %66, 0
  br i1 %67, label %68, label %74

68:                                               ; preds = %65
  store i32 1, i32* %6, align 4
  %69 = load i32, i32* %5, align 4
  %70 = sext i32 %69 to i64
  %71 = getelementptr inbounds [300 x i8], [300 x i8]* %8, i64 0, i64 %70
  store i8 32, i8* %71, align 1
  %72 = load i32, i32* %5, align 4
  %73 = add nsw i32 %72, 1
  store i32 %73, i32* %5, align 4
  br label %74

74:                                               ; preds = %68, %65, %58
  br label %75

75:                                               ; preds = %74
  %76 = load i32, i32* %2, align 4
  %77 = add nsw i32 %76, 1
  store i32 %77, i32* %2, align 4
  br label %36

78:                                               ; preds = %36
  br label %122

79:                                               ; preds = %0
  store i32 0, i32* %2, align 4
  br label %80

80:                                               ; preds = %118, %79
  %81 = load i32, i32* %2, align 4
  %82 = load i32, i32* %3, align 4
  %83 = icmp slt i32 %81, %82
  br i1 %83, label %84, label %121

84:                                               ; preds = %80
  %85 = load i32, i32* %2, align 4
  %86 = sext i32 %85 to i64
  %87 = getelementptr inbounds [300 x i8], [300 x i8]* %7, i64 0, i64 %86
  %88 = load i8, i8* %87, align 1
  %89 = sext i8 %88 to i32
  %90 = icmp ne i32 %89, 32
  br i1 %90, label %91, label %101

91:                                               ; preds = %84
  store i32 0, i32* %6, align 4
  %92 = load i32, i32* %2, align 4
  %93 = sext i32 %92 to i64
  %94 = getelementptr inbounds [300 x i8], [300 x i8]* %7, i64 0, i64 %93
  %95 = load i8, i8* %94, align 1
  %96 = load i32, i32* %5, align 4
  %97 = sext i32 %96 to i64
  %98 = getelementptr inbounds [300 x i8], [300 x i8]* %8, i64 0, i64 %97
  store i8 %95, i8* %98, align 1
  %99 = load i32, i32* %5, align 4
  %100 = add nsw i32 %99, 1
  store i32 %100, i32* %5, align 4
  br label %101

101:                                              ; preds = %91, %84
  %102 = load i32, i32* %2, align 4
  %103 = sext i32 %102 to i64
  %104 = getelementptr inbounds [300 x i8], [300 x i8]* %7, i64 0, i64 %103
  %105 = load i8, i8* %104, align 1
  %106 = sext i8 %105 to i32
  %107 = icmp eq i32 %106, 32
  br i1 %107, label %108, label %117

108:                                              ; preds = %101
  %109 = load i32, i32* %6, align 4
  %110 = icmp eq i32 %109, 0
  br i1 %110, label %111, label %117

111:                                              ; preds = %108
  store i32 1, i32* %6, align 4
  %112 = load i32, i32* %5, align 4
  %113 = sext i32 %112 to i64
  %114 = getelementptr inbounds [300 x i8], [300 x i8]* %8, i64 0, i64 %113
  store i8 32, i8* %114, align 1
  %115 = load i32, i32* %5, align 4
  %116 = add nsw i32 %115, 1
  store i32 %116, i32* %5, align 4
  br label %117

117:                                              ; preds = %111, %108, %101
  br label %118

118:                                              ; preds = %117
  %119 = load i32, i32* %2, align 4
  %120 = add nsw i32 %119, 1
  store i32 %120, i32* %2, align 4
  br label %80

121:                                              ; preds = %80
  br label %122

122:                                              ; preds = %121, %78
  %123 = load i32, i32* %5, align 4
  %124 = sub nsw i32 %123, 2
  %125 = sext i32 %124 to i64
  %126 = getelementptr inbounds [300 x i8], [300 x i8]* %8, i64 0, i64 %125
  %127 = load i8, i8* %126, align 1
  %128 = sext i8 %127 to i32
  %129 = icmp eq i32 %128, 0
  br i1 %129, label %130, label %147

130:                                              ; preds = %122
  store i32 0, i32* %2, align 4
  br label %131

131:                                              ; preds = %143, %130
  %132 = load i32, i32* %2, align 4
  %133 = load i32, i32* %5, align 4
  %134 = sub nsw i32 %133, 1
  %135 = icmp slt i32 %132, %134
  br i1 %135, label %136, label %146

136:                                              ; preds = %131
  %137 = load i32, i32* %2, align 4
  %138 = sext i32 %137 to i64
  %139 = getelementptr inbounds [300 x i8], [300 x i8]* %8, i64 0, i64 %138
  %140 = load i8, i8* %139, align 1
  %141 = sext i8 %140 to i32
  %142 = call i32 (i8*, ...) @printf(i8* getelementptr inbounds ([3 x i8], [3 x i8]* @.str, i64 0, i64 0), i32 %141)
  br label %143

143:                                              ; preds = %136
  %144 = load i32, i32* %2, align 4
  %145 = add nsw i32 %144, 1
  store i32 %145, i32* %2, align 4
  br label %131

146:                                              ; preds = %131
  br label %163

147:                                              ; preds = %122
  store i32 0, i32* %2, align 4
  br label %148

148:                                              ; preds = %159, %147
  %149 = load i32, i32* %2, align 4
  %150 = load i32, i32* %5, align 4
  %151 = icmp slt i32 %149, %150
  br i1 %151, label %152, label %162

152:                                              ; preds = %148
  %153 = load i32, i32* %2, align 4
  %154 = sext i32 %153 to i64
  %155 = getelementptr inbounds [300 x i8], [300 x i8]* %8, i64 0, i64 %154
  %156 = load i8, i8* %155, align 1
  %157 = sext i8 %156 to i32
  %158 = call i32 (i8*, ...) @printf(i8* getelementptr inbounds ([3 x i8], [3 x i8]* @.str, i64 0, i64 0), i32 %157)
  br label %159

159:                                              ; preds = %152
  %160 = load i32, i32* %2, align 4
  %161 = add nsw i32 %160, 1
  store i32 %161, i32* %2, align 4
  br label %148

162:                                              ; preds = %148
  br label %163

163:                                              ; preds = %162, %146
  ret i32 0
}

declare dso_local i32 @gets(...) #1

; Function Attrs: nounwind readonly
declare dso_local i64 @strlen(i8*) #2

declare dso_local i32 @printf(i8*, ...) #1


!llvm.module.flags = !{!0}
!llvm.ident = !{!1}

!0 = !{i32 1, !"wchar_size", i32 4}
!1 = !{!"clang version 10.0.0-4ubuntu1 "}
